target datalayout = "e-m:e-p270:32:32-p271:32:32-p272:64:64-i64:64-i128:128-f80:128-n8:16:32:64-S128"
target triple = "x86_64-pc-linux-gnu"

%struct.expert_field = type { i32, i32 }

@hf_reserved = internal global i32 0, align 4
@hf_checksum = internal global i32 0, align 4
@hf_checksum_status = internal global i32 0, align 4
@hf_maddr = internal global i32 0, align 4
@ei_checksum = internal global %struct.expert_field zeroinitializer, align 4

; Function Attrs: null_pointer_is_valid sspstrong uwtable
define internal i32 @dissect_igmp_v1(ptr noundef %0, ptr noundef %1, ptr noundef %2, ptr noundef %3) #0 {
  %5 = alloca ptr, align 8
  %6 = alloca ptr, align 8
  %7 = alloca ptr, align 8
  %8 = alloca ptr, align 8
  %9 = alloca ptr, align 8
  %10 = alloca i32, align 4
  %11 = alloca i8, align 1
  store ptr %0, ptr %5, align 8
  store ptr %1, ptr %6, align 8
  store ptr %2, ptr %7, align 8
  store ptr %3, ptr %8, align 8
  call void @llvm.lifetime.start.p0(i64 8, ptr %9) #4
  call void @llvm.lifetime.start.p0(i64 4, ptr %10) #4
  call void @llvm.lifetime.start.p0(i64 1, ptr %11) #4
  %12 = load ptr, ptr %5, align 8
  %13 = load ptr, ptr %6, align 8
  %14 = load ptr, ptr %7, align 8
  %15 = call ptr @dissect_igmp_common(ptr noundef %12, ptr noundef %13, ptr noundef %14, ptr noundef %10, ptr noundef %11, i32 noundef 1)
  store ptr %15, ptr %9, align 8
  %16 = load ptr, ptr %9, align 8
  %17 = load i32, ptr @hf_reserved, align 4
  %18 = load ptr, ptr %5, align 8
  %19 = load i32, ptr %10, align 4
  %20 = call ptr @proto_tree_add_item(ptr noundef %16, i32 noundef %17, ptr noundef %18, i32 noundef %19, i32 noundef 1, i32 noundef 0)
  %21 = load i32, ptr %10, align 4
  %22 = add i32 %21, 1
  store i32 %22, ptr %10, align 4
  %23 = load ptr, ptr %9, align 8
  %24 = load ptr, ptr %5, align 8
  %25 = load i32, ptr @hf_checksum, align 4
  %26 = load i32, ptr @hf_checksum_status, align 4
  %27 = load ptr, ptr %6, align 8
  call void @igmp_checksum(ptr noundef %23, ptr noundef %24, i32 noundef %25, i32 noundef %26, ptr noundef @ei_checksum, ptr noundef %27, i32 noundef 8)
  %28 = load i32, ptr %10, align 4
  %29 = add i32 %28, 2
  store i32 %29, ptr %10, align 4
  %30 = load ptr, ptr %9, align 8
  %31 = load i32, ptr @hf_maddr, align 4
  %32 = load ptr, ptr %5, align 8
  %33 = load i32, ptr %10, align 4
  %34 = call ptr @proto_tree_add_item(ptr noundef %30, i32 noundef %31, ptr noundef %32, i32 noundef %33, i32 noundef 4, i32 noundef 0)
  %35 = load i32, ptr %10, align 4
  %36 = add i32 %35, 4
  store i32 %36, ptr %10, align 4
  %37 = load i32, ptr %10, align 4
  call void @llvm.lifetime.end.p0(i64 1, ptr %11) #4
  call void @llvm.lifetime.end.p0(i64 4, ptr %10) #4
  call void @llvm.lifetime.end.p0(i64 8, ptr %9) #4
  ret i32 %37
}