; Function Attrs: null_pointer_is_valid sspstrong uwtable
define internal noundef i32 @dissect_igmp_v1(ptr noundef %0, ptr noundef %1, ptr noundef %2, ptr readnone captures(none) %3) #0 {
  %5 = alloca i32, align 4
  %6 = alloca i8, align 1
  call void @llvm.lifetime.start.p0(i64 4, ptr nonnull %5) #4
  call void @llvm.lifetime.start.p0(i64 1, ptr nonnull %6) #4
  %7 = call fastcc ptr @dissect_igmp_common(ptr noundef %0, ptr noundef %1, ptr noundef %2, ptr noundef nonnull %5, ptr noundef nonnull %6, i32 noundef 1)
  %8 = load i32, ptr @hf_reserved, align 4
  %9 = load i32, ptr %5, align 4
  %10 = tail call ptr @proto_tree_add_item(ptr noundef %7, i32 noundef %8, ptr noundef %0, i32 noundef %9, i32 noundef 1, i32 noundef 0)
  %11 = load i32, ptr @hf_checksum, align 4
  %12 = load i32, ptr @hf_checksum_status, align 4
  tail call void @igmp_checksum(ptr noundef %7, ptr noundef %0, i32 noundef %11, i32 noundef %12, ptr noundef nonnull @ei_checksum, ptr noundef %1, i32 noundef 8)
  %13 = add i32 %9, 3
  %14 = load i32, ptr @hf_maddr, align 4
  %15 = tail call ptr @proto_tree_add_item(ptr noundef %7, i32 noundef %14, ptr noundef %0, i32 noundef %13, i32 noundef 4, i32 noundef 0)
  %16 = add i32 %9, 7
  call void @llvm.lifetime.end.p0(i64 1, ptr nonnull %6) #4
  call void @llvm.lifetime.end.p0(i64 4, ptr nonnull %5) #4
  ret i32 %16
}